target datalayout = "e-m:e-p270:32:32-p271:32:32-p272:64:64-i64:64-i128:128-f80:128-n8:16:32:64-S128"
target triple = "x86_64-pc-linux-gnu"

%struct.PJconsts = type { ptr, ptr, ptr, ptr, ptr, ptr, ptr, ptr, ptr, ptr, ptr, ptr, i32, ptr, ptr, ptr, ptr, ptr, ptr, ptr, ptr, double, double, double, double, double, double, double, double, double, double, double, double, double, double, double, double, double, double, double, double, double, double, i32, i32, i32, i32, i32, i32, i32, i32, i32, i32, i32, ptr, ptr, ptr, ptr, ptr, ptr, double, double, double, double, double, double, double, double, double, double, double, i32, [7 x double], i32, ptr, ptr, double, double, i32, [4 x i8], %"class.std::shared_ptr", i8, double, i8, %"class.std::__cxx11::basic_string", %"class.std::__cxx11::basic_string", %"class.std::__cxx11::basic_string", i8, %"class.std::vector", i32, %"class.std::vector.3", i32, i8, i8, i8, ptr }
%"class.std::shared_ptr" = type { %"class.std::__shared_ptr" }
%"class.std::__shared_ptr" = type { ptr, %"class.std::__shared_count" }
%"class.std::__shared_count" = type { ptr }
%"class.std::__cxx11::basic_string" = type { %"struct.std::__cxx11::basic_string<char>::_Alloc_hider", i64, %union.anon }
%"struct.std::__cxx11::basic_string<char>::_Alloc_hider" = type { ptr }
%union.anon = type { i64, [8 x i8] }
%"class.std::vector" = type { %"struct.std::_Vector_base" }
%"struct.std::_Vector_base" = type { %"struct.std::_Vector_base<osgeo::proj::operation::GridDescription, std::allocator<osgeo::proj::operation::GridDescription>>::_Vector_impl" }
%"struct.std::_Vector_base<osgeo::proj::operation::GridDescription, std::allocator<osgeo::proj::operation::GridDescription>>::_Vector_impl" = type { %"struct.std::_Vector_base<osgeo::proj::operation::GridDescription, std::allocator<osgeo::proj::operation::GridDescription>>::_Vector_impl_data" }
%"struct.std::_Vector_base<osgeo::proj::operation::GridDescription, std::allocator<osgeo::proj::operation::GridDescription>>::_Vector_impl_data" = type { ptr, ptr, ptr }
%"class.std::vector.3" = type { %"struct.std::_Vector_base.4" }
%"struct.std::_Vector_base.4" = type { %"struct.std::_Vector_base<PJCoordOperation, std::allocator<PJCoordOperation>>::_Vector_impl" }
%"struct.std::_Vector_base<PJCoordOperation, std::allocator<PJCoordOperation>>::_Vector_impl" = type { %"struct.std::_Vector_base<PJCoordOperation, std::allocator<PJCoordOperation>>::_Vector_impl_data" }
%"struct.std::_Vector_base<PJCoordOperation, std::allocator<PJCoordOperation>>::_Vector_impl_data" = type { ptr, ptr, ptr }
%"struct.(anonymous namespace)::pj_geos_data" = type { double, double, double, double, double, double, double, i32 }
%struct.PJ_LP = type { double, double }
%struct.PJ_XY = type { double, double }

; Function Attrs: mustprogress uwtable
define internal { double, double } @_ZL14geos_e_forward5PJ_LPP8PJconsts(double %0, double %1, ptr noundef %2) #0 {
  %4 = alloca %struct.PJ_XY, align 8
  %5 = alloca %struct.PJ_LP, align 8
  %6 = alloca ptr, align 8
  %7 = alloca ptr, align 8
  %8 = alloca double, align 8
  %9 = alloca double, align 8
  %10 = alloca double, align 8
  %11 = alloca double, align 8
  %12 = alloca double, align 8
  %13 = alloca i32, align 4
  %14 = getelementptr inbounds nuw { double, double }, ptr %5, i32 0, i32 0
  store double %0, ptr %14, align 8
  %15 = getelementptr inbounds nuw { double, double }, ptr %5, i32 0, i32 1
  store double %1, ptr %15, align 8
  store ptr %2, ptr %6, align 8, !tbaa !3
  call void @llvm.memset.p0.i64(ptr align 8 %4, i8 0, i64 16, i1 false)
  call void @llvm.lifetime.start.p0(i64 8, ptr %7) #8
  %16 = load ptr, ptr %6, align 8, !tbaa !3
  %17 = getelementptr inbounds nuw %struct.PJconsts, ptr %16, i32 0, i32 11
  %18 = load ptr, ptr %17, align 8, !tbaa !43
  store ptr %18, ptr %7, align 8, !tbaa !41
  call void @llvm.lifetime.start.p0(i64 8, ptr %8) #8
  call void @llvm.lifetime.start.p0(i64 8, ptr %9) #8
  call void @llvm.lifetime.start.p0(i64 8, ptr %10) #8
  call void @llvm.lifetime.start.p0(i64 8, ptr %11) #8
  call void @llvm.lifetime.start.p0(i64 8, ptr %12) #8
  %19 = load ptr, ptr %7, align 8, !tbaa !41
  %20 = getelementptr inbounds nuw %"struct.(anonymous namespace)::pj_geos_data", ptr %19, i32 0, i32 2
  %21 = load double, ptr %20, align 8, !tbaa !59
  %22 = getelementptr inbounds nuw %struct.PJ_LP, ptr %5, i32 0, i32 1
  %23 = load double, ptr %22, align 8, !tbaa !70
  %24 = call double @tan(double noundef %23) #8, !tbaa !57
  %25 = fmul double %21, %24
  %26 = call double @atan(double noundef %25) #8, !tbaa !57
  %27 = getelementptr inbounds nuw %struct.PJ_LP, ptr %5, i32 0, i32 1
  store double %26, ptr %27, align 8, !tbaa !70
  %28 = load ptr, ptr %7, align 8, !tbaa !41
  %29 = getelementptr inbounds nuw %"struct.(anonymous namespace)::pj_geos_data", ptr %28, i32 0, i32 1
  %30 = load double, ptr %29, align 8, !tbaa !58
  %31 = load ptr, ptr %7, align 8, !tbaa !41
  %32 = getelementptr inbounds nuw %"struct.(anonymous namespace)::pj_geos_data", ptr %31, i32 0, i32 1
  %33 = load double, ptr %32, align 8, !tbaa !58
  %34 = getelementptr inbounds nuw %struct.PJ_LP, ptr %5, i32 0, i32 1
  %35 = load double, ptr %34, align 8, !tbaa !70
  %36 = call double @cos(double noundef %35) #8, !tbaa !57
  %37 = fmul double %33, %36
  %38 = getelementptr inbounds nuw %struct.PJ_LP, ptr %5, i32 0, i32 1
  %39 = load double, ptr %38, align 8, !tbaa !70
  %40 = call double @sin(double noundef %39) #8, !tbaa !57
  %41 = call double @hypot(double noundef %37, double noundef %40) #8, !tbaa !57
  %42 = fdiv double %30, %41
  store double %42, ptr %8, align 8, !tbaa !64
  %43 = load double, ptr %8, align 8, !tbaa !64
  %44 = getelementptr inbounds nuw %struct.PJ_LP, ptr %5, i32 0, i32 0
  %45 = load double, ptr %44, align 8, !tbaa !68
  %46 = call double @cos(double noundef %45) #8, !tbaa !57
  %47 = fmul double %43, %46
  %48 = getelementptr inbounds nuw %struct.PJ_LP, ptr %5, i32 0, i32 1
  %49 = load double, ptr %48, align 8, !tbaa !70
  %50 = call double @cos(double noundef %49) #8, !tbaa !57
  %51 = fmul double %47, %50
  store double %51, ptr %9, align 8, !tbaa !64
  %52 = load double, ptr %8, align 8, !tbaa !64
  %53 = getelementptr inbounds nuw %struct.PJ_LP, ptr %5, i32 0, i32 0
  %54 = load double, ptr %53, align 8, !tbaa !68
  %55 = call double @sin(double noundef %54) #8, !tbaa !57
  %56 = fmul double %52, %55
  %57 = getelementptr inbounds nuw %struct.PJ_LP, ptr %5, i32 0, i32 1
  %58 = load double, ptr %57, align 8, !tbaa !70
  %59 = call double @cos(double noundef %58) #8, !tbaa !57
  %60 = fmul double %56, %59
  store double %60, ptr %10, align 8, !tbaa !64
  %61 = load double, ptr %8, align 8, !tbaa !64
  %62 = getelementptr inbounds nuw %struct.PJ_LP, ptr %5, i32 0, i32 1
  %63 = load double, ptr %62, align 8, !tbaa !70
  %64 = call double @sin(double noundef %63) #8, !tbaa !57
  %65 = fmul double %61, %64
  store double %65, ptr %11, align 8, !tbaa !64
  %66 = load ptr, ptr %7, align 8, !tbaa !41
  %67 = getelementptr inbounds nuw %"struct.(anonymous namespace)::pj_geos_data", ptr %66, i32 0, i32 4
  %68 = load double, ptr %67, align 8, !tbaa !53
  %69 = load double, ptr %9, align 8, !tbaa !64
  %70 = fsub double %68, %69
  %71 = load double, ptr %9, align 8, !tbaa !64
  %72 = load double, ptr %10, align 8, !tbaa !64
  %73 = load double, ptr %10, align 8, !tbaa !64
  %74 = fmul double %72, %73
  %75 = fneg double %74
  %76 = call double @llvm.fmuladd.f64(double %70, double %71, double %75)
  %77 = load double, ptr %11, align 8, !tbaa !64
  %78 = load double, ptr %11, align 8, !tbaa !64
  %79 = fmul double %77, %78
  %80 = load ptr, ptr %7, align 8, !tbaa !41
  %81 = getelementptr inbounds nuw %"struct.(anonymous namespace)::pj_geos_data", ptr %80, i32 0, i32 3
  %82 = load double, ptr %81, align 8, !tbaa !61
  %83 = fneg double %79
  %84 = call double @llvm.fmuladd.f64(double %83, double %82, double %76)
  %85 = fcmp olt double %84, 0.000000e+00
  br i1 %85, label %86, label %89

86:                                               ; preds = %3
  %87 = load ptr, ptr %6, align 8, !tbaa !3
  %88 = call i32 @proj_errno_set(ptr noundef %87, i32 noundef 2050)
  store i32 1, ptr %13, align 4
  br label %142

89:                                               ; preds = %3
  %90 = load ptr, ptr %7, align 8, !tbaa !41
  %91 = getelementptr inbounds nuw %"struct.(anonymous namespace)::pj_geos_data", ptr %90, i32 0, i32 4
  %92 = load double, ptr %91, align 8, !tbaa !53
  %93 = load double, ptr %9, align 8, !tbaa !64
  %94 = fsub double %92, %93
  store double %94, ptr %12, align 8, !tbaa !64
  %95 = load ptr, ptr %7, align 8, !tbaa !41
  %96 = getelementptr inbounds nuw %"struct.(anonymous namespace)::pj_geos_data", ptr %95, i32 0, i32 7
  %97 = load i32, ptr %96, align 8, !tbaa !50
  %98 = icmp ne i32 %97, 0
  br i1 %98, label %99, label %120

99:                                               ; preds = %89
  %100 = load ptr, ptr %7, align 8, !tbaa !41
  %101 = getelementptr inbounds nuw %"struct.(anonymous namespace)::pj_geos_data", ptr %100, i32 0, i32 5
  %102 = load double, ptr %101, align 8, !tbaa !52
  %103 = load double, ptr %10, align 8, !tbaa !64
  %104 = load double, ptr %11, align 8, !tbaa !64
  %105 = load double, ptr %12, align 8, !tbaa !64
  %106 = call double @hypot(double noundef %104, double noundef %105) #8, !tbaa !57
  %107 = fdiv double %103, %106
  %108 = call double @atan(double noundef %107) #8, !tbaa !57
  %109 = fmul double %102, %108
  %110 = getelementptr inbounds nuw %struct.PJ_XY, ptr %4, i32 0, i32 0
  store double %109, ptr %110, align 8, !tbaa !67
  %111 = load ptr, ptr %7, align 8, !tbaa !41
  %112 = getelementptr inbounds nuw %"struct.(anonymous namespace)::pj_geos_data", ptr %111, i32 0, i32 5
  %113 = load double, ptr %112, align 8, !tbaa !52
  %114 = load double, ptr %11, align 8, !tbaa !64
  %115 = load double, ptr %12, align 8, !tbaa !64
  %116 = fdiv double %114, %115
  %117 = call double @atan(double noundef %116) #8, !tbaa !57
  %118 = fmul double %113, %117
  %119 = getelementptr inbounds nuw %struct.PJ_XY, ptr %4, i32 0, i32 1
  store double %118, ptr %119, align 8, !tbaa !65
  br label %141

120:                                              ; preds = %89
  %121 = load ptr, ptr %7, align 8, !tbaa !41
  %122 = getelementptr inbounds nuw %"struct.(anonymous namespace)::pj_geos_data", ptr %121, i32 0, i32 5
  %123 = load double, ptr %122, align 8, !tbaa !52
  %124 = load double, ptr %10, align 8, !tbaa !64
  %125 = load double, ptr %12, align 8, !tbaa !64
  %126 = fdiv double %124, %125
  %127 = call double @atan(double noundef %126) #8, !tbaa !57
  %128 = fmul double %123, %127
  %129 = getelementptr inbounds nuw %struct.PJ_XY, ptr %4, i32 0, i32 0
  store double %128, ptr %129, align 8, !tbaa !67
  %130 = load ptr, ptr %7, align 8, !tbaa !41
  %131 = getelementptr inbounds nuw %"struct.(anonymous namespace)::pj_geos_data", ptr %130, i32 0, i32 5
  %132 = load double, ptr %131, align 8, !tbaa !52
  %133 = load double, ptr %11, align 8, !tbaa !64
  %134 = load double, ptr %10, align 8, !tbaa !64
  %135 = load double, ptr %12, align 8, !tbaa !64
  %136 = call double @hypot(double noundef %134, double noundef %135) #8, !tbaa !57
  %137 = fdiv double %133, %136
  %138 = call double @atan(double noundef %137) #8, !tbaa !57
  %139 = fmul double %132, %138
  %140 = getelementptr inbounds nuw %struct.PJ_XY, ptr %4, i32 0, i32 1
  store double %139, ptr %140, align 8, !tbaa !65
  br label %141

141:                                              ; preds = %120, %99
  store i32 1, ptr %13, align 4
  br label %142

142:                                              ; preds = %141, %86
  call void @llvm.lifetime.end.p0(i64 8, ptr %12) #8
  call void @llvm.lifetime.end.p0(i64 8, ptr %11) #8
  call void @llvm.lifetime.end.p0(i64 8, ptr %10) #8
  call void @llvm.lifetime.end.p0(i64 8, ptr %9) #8
  call void @llvm.lifetime.end.p0(i64 8, ptr %8) #8
  call void @llvm.lifetime.end.p0(i64 8, ptr %7) #8
  %143 = load { double, double }, ptr %4, align 8
  ret { double, double } %143
}