; Function Attrs: mustprogress uwtable
define internal { double, double } @_ZL14geos_e_forward5PJ_LPP8PJconsts(double %0, double %1, ptr noundef %2) #0 {
  %4 = getelementptr inbounds nuw i8, ptr %2, i64 88
  %5 = load ptr, ptr %4, align 8, !tbaa !40
  %6 = getelementptr inbounds nuw i8, ptr %5, i64 16
  %7 = load double, ptr %6, align 8, !tbaa !55
  %8 = tail call double @tan(double noundef %1) #8, !tbaa !53
  %9 = fmul double %7, %8
  %10 = tail call double @atan(double noundef %9) #8, !tbaa !53
  %11 = getelementptr inbounds nuw i8, ptr %5, i64 8
  %12 = load double, ptr %11, align 8, !tbaa !54
  %13 = tail call double @cos(double noundef %10) #8, !tbaa !53
  %14 = fmul double %12, %13
  %15 = tail call double @sin(double noundef %10) #8, !tbaa !53
  %16 = tail call double @hypot(double noundef %14, double noundef %15) #8, !tbaa !53
  %17 = fdiv double %12, %16
  %18 = tail call double @cos(double noundef %0) #8, !tbaa !53
  %19 = fmul double %17, %18
  %20 = tail call double @cos(double noundef %10) #8, !tbaa !53
  %21 = fmul double %19, %20
  %22 = tail call double @sin(double noundef %0) #8, !tbaa !53
  %23 = fmul double %17, %22
  %24 = tail call double @cos(double noundef %10) #8, !tbaa !53
  %25 = fmul double %23, %24
  %26 = tail call double @sin(double noundef %10) #8, !tbaa !53
  %27 = fmul double %17, %26
  %28 = getelementptr inbounds nuw i8, ptr %5, i64 32
  %29 = load double, ptr %28, align 8, !tbaa !49
  %30 = fsub double %29, %21
  %31 = fneg double %25
  %32 = fmul double %25, %31
  %33 = tail call double @llvm.fmuladd.f64(double %30, double %21, double %32)
  %34 = getelementptr inbounds nuw i8, ptr %5, i64 24
  %35 = load double, ptr %34, align 8, !tbaa !57
  %36 = fneg double %27
  %37 = fmul double %27, %36
  %38 = tail call double @llvm.fmuladd.f64(double %37, double %35, double %33)
  %39 = fcmp olt double %38, 0.000000e+00
  br i1 %39, label %40, label %42

40:                                               ; preds = %3
  %41 = tail call i32 @proj_errno_set(ptr noundef nonnull %2, i32 noundef 2050)
  br label %63

42:                                               ; preds = %3
  %43 = getelementptr inbounds nuw i8, ptr %5, i64 56
  %44 = load i32, ptr %43, align 8, !tbaa !45
  %.not = icmp eq i32 %44, 0
  %45 = getelementptr inbounds nuw i8, ptr %5, i64 40
  %46 = load double, ptr %45, align 8, !tbaa !48
  br i1 %.not, label %55, label %47

47:                                               ; preds = %42
  %48 = tail call double @hypot(double noundef %27, double noundef %30) #8, !tbaa !53
  %49 = fdiv double %25, %48
  %50 = tail call double @atan(double noundef %49) #8, !tbaa !53
  %51 = fmul double %46, %50
  %52 = fdiv double %27, %30
  %53 = tail call double @atan(double noundef %52) #8, !tbaa !53
  %54 = fmul double %46, %53
  br label %63

55:                                               ; preds = %42
  %56 = fdiv double %25, %30
  %57 = tail call double @atan(double noundef %56) #8, !tbaa !53
  %58 = fmul double %46, %57
  %59 = tail call double @hypot(double noundef %25, double noundef %30) #8, !tbaa !53
  %60 = fdiv double %27, %59
  %61 = tail call double @atan(double noundef %60) #8, !tbaa !53
  %62 = fmul double %46, %61
  br label %63

63:                                               ; preds = %47, %55, %40
  %.sroa.4.0 = phi double [ 0.000000e+00, %40 ], [ %54, %47 ], [ %62, %55 ]
  %.sroa.039.0 = phi double [ 0.000000e+00, %40 ], [ %51, %47 ], [ %58, %55 ]
  %.fca.0.insert = insertvalue { double, double } poison, double %.sroa.039.0, 0
  %.fca.1.insert = insertvalue { double, double } %.fca.0.insert, double %.sroa.4.0, 1
  ret { double, double } %.fca.1.insert
}